; Function Attrs: mustprogress uwtable
define dso_local void @_ZN19cmFindLibraryHelper7SetNameERKNSt7__cxx1112basic_stringIcSt11char_traitsIcESaIcEEE(ptr noundef nonnull align 8 dereferenceable(360) %0, ptr noundef nonnull align 8 dereferenceable(32) %1) local_unnamed_addr #3 align 2 personality ptr @__gxx_personality_v0 {
  %3 = getelementptr inbounds i8, ptr %0, i64 176
  %4 = load ptr, ptr %3, align 8
  %5 = getelementptr inbounds i8, ptr %0, i64 184
  %6 = load ptr, ptr %5, align 8
  %.not.i.i = icmp eq ptr %6, %4
  br i1 %.not.i.i, label %_ZNSt6vectorIN19cmFindLibraryHelper4NameESaIS1_EE5clearEv.exit, label %.lr.ph.i.i.i.i.i

.lr.ph.i.i.i.i.i:                                 ; preds = %2, %_ZSt8_DestroyIN19cmFindLibraryHelper4NameEEvPT_.exit.i.i.i.i.i
  %.05.i.i.i.i.i = phi ptr [ %12, %_ZSt8_DestroyIN19cmFindLibraryHelper4NameEEvPT_.exit.i.i.i.i.i ], [ %4, %2 ]
  %7 = getelementptr inbounds i8, ptr %.05.i.i.i.i.i, i64 584
  %8 = load ptr, ptr %7, align 8
  %9 = icmp eq ptr %8, null
  br i1 %9, label %_ZSt8_DestroyIN19cmFindLibraryHelper4NameEEvPT_.exit.i.i.i.i.i, label %10

10:                                               ; preds = %.lr.ph.i.i.i.i.i
  tail call void @_ZdaPv(ptr noundef nonnull %8) #19
  br label %_ZSt8_DestroyIN19cmFindLibraryHelper4NameEEvPT_.exit.i.i.i.i.i

_ZSt8_DestroyIN19cmFindLibraryHelper4NameEEvPT_.exit.i.i.i.i.i: ; preds = %10, %.lr.ph.i.i.i.i.i
  %11 = getelementptr inbounds i8, ptr %.05.i.i.i.i.i, i64 8
  tail call void @_ZNSt7__cxx1112basic_stringIcSt11char_traitsIcESaIcEED1Ev(ptr noundef nonnull align 8 dereferenceable(32) %11) #17
  %12 = getelementptr inbounds i8, ptr %.05.i.i.i.i.i, i64 600
  %.not.i.i.i.i.i = icmp eq ptr %12, %6
  br i1 %.not.i.i.i.i.i, label %_ZSt8_DestroyIPN19cmFindLibraryHelper4NameES1_EvT_S3_RSaIT0_E.exit.i.i, label %.lr.ph.i.i.i.i.i, !llvm.loop !89

_ZSt8_DestroyIPN19cmFindLibraryHelper4NameES1_EvT_S3_RSaIT0_E.exit.i.i: ; preds = %_ZSt8_DestroyIN19cmFindLibraryHelper4NameEEvPT_.exit.i.i.i.i.i
  store ptr %4, ptr %5, align 8
  br label %_ZNSt6vectorIN19cmFindLibraryHelper4NameESaIS1_EE5clearEv.exit

_ZNSt6vectorIN19cmFindLibraryHelper4NameESaIS1_EE5clearEv.exit: ; preds = %2, %_ZSt8_DestroyIPN19cmFindLibraryHelper4NameES1_EvT_S3_RSaIT0_E.exit.i.i
  tail call void @_ZN19cmFindLibraryHelper7AddNameERKNSt7__cxx1112basic_stringIcSt11char_traitsIcESaIcEEE(ptr noundef nonnull align 8 dereferenceable(360) %0, ptr noundef nonnull align 8 dereferenceable(32) %1)
  ret void
}